target datalayout = "e-m:e-p270:32:32-p271:32:32-p272:64:64-i64:64-i128:128-f80:128-n8:16:32:64-S128"
target triple = "x86_64-pc-linux-gnu"

%struct.FFBitStreamFilter = type { %struct.AVBitStreamFilter, i32, ptr, ptr, ptr, ptr }
%struct.AVBitStreamFilter = type { ptr, ptr, ptr }
%struct.AVBSFContext = type { ptr, ptr, ptr, ptr, ptr, %struct.AVRational, %struct.AVRational }
%struct.AVRational = type { i32, i32 }
%struct.FFBSFContext = type { %struct.AVBSFContext, ptr, i32 }

; Function Attrs: alwaysinline nounwind uwtable
define internal ptr @ff_bsf(ptr noundef %0) #2 {
  %2 = alloca ptr, align 8
  store ptr %0, ptr %2, align 8, !tbaa !27
  %3 = load ptr, ptr %2, align 8, !tbaa !27
  ret ptr %3
}

; Function Attrs: alwaysinline nounwind uwtable
define internal ptr @ffbsfcontext(ptr noundef %0) #2 {
  %2 = alloca ptr, align 8
  store ptr %0, ptr %2, align 8, !tbaa !10
  %3 = load ptr, ptr %2, align 8, !tbaa !10
  ret ptr %3
}

; Function Attrs: nounwind uwtable
define void @av_bsf_flush(ptr noundef %0) #0 {
  %2 = alloca ptr, align 8
  %3 = alloca ptr, align 8
  store ptr %0, ptr %2, align 8, !tbaa !10
  call void @llvm.lifetime.start.p0(i64 8, ptr %3) #6
  %4 = load ptr, ptr %2, align 8, !tbaa !10
  %5 = call ptr @ffbsfcontext(ptr noundef %4)
  store ptr %5, ptr %3, align 8, !tbaa !12
  %6 = load ptr, ptr %3, align 8, !tbaa !12
  %7 = getelementptr inbounds nuw %struct.FFBSFContext, ptr %6, i32 0, i32 2
  store i32 0, ptr %7, align 8, !tbaa !55
  %8 = load ptr, ptr %3, align 8, !tbaa !12
  %9 = getelementptr inbounds nuw %struct.FFBSFContext, ptr %8, i32 0, i32 1
  %10 = load ptr, ptr %9, align 8, !tbaa !34
  call void @av_packet_unref(ptr noundef %10)
  %11 = load ptr, ptr %2, align 8, !tbaa !10
  %12 = getelementptr inbounds nuw %struct.AVBSFContext, ptr %11, i32 0, i32 1
  %13 = load ptr, ptr %12, align 8, !tbaa !21
  %14 = call ptr @ff_bsf(ptr noundef %13)
  %15 = getelementptr inbounds nuw %struct.FFBitStreamFilter, ptr %14, i32 0, i32 5
  %16 = load ptr, ptr %15, align 8, !tbaa !56
  %17 = icmp ne ptr %16, null
  br i1 %17, label %18, label %26

18:                                               ; preds = %1
  %19 = load ptr, ptr %2, align 8, !tbaa !10
  %20 = getelementptr inbounds nuw %struct.AVBSFContext, ptr %19, i32 0, i32 1
  %21 = load ptr, ptr %20, align 8, !tbaa !21
  %22 = call ptr @ff_bsf(ptr noundef %21)
  %23 = getelementptr inbounds nuw %struct.FFBitStreamFilter, ptr %22, i32 0, i32 5
  %24 = load ptr, ptr %23, align 8, !tbaa !56
  %25 = load ptr, ptr %2, align 8, !tbaa !10
  call void %24(ptr noundef %25)
  br label %26

26:                                               ; preds = %18, %1
  call void @llvm.lifetime.end.p0(i64 8, ptr %3) #6
  ret void
}