; Function Attrs: nounwind uwtable
define void @av_bsf_flush(ptr noundef initializes((64, 68)) %0) local_unnamed_addr #0 {
  %2 = getelementptr inbounds nuw i8, ptr %0, i64 64
  store i32 0, ptr %2, align 8, !tbaa !47
  %3 = getelementptr inbounds nuw i8, ptr %0, i64 56
  %4 = load ptr, ptr %3, align 8, !tbaa !27
  tail call void @av_packet_unref(ptr noundef %4) #6
  %5 = getelementptr inbounds nuw i8, ptr %0, i64 8
  %6 = load ptr, ptr %5, align 8, !tbaa !16
  %7 = getelementptr inbounds nuw i8, ptr %6, i64 56
  %8 = load ptr, ptr %7, align 8, !tbaa !48
  %.not = icmp eq ptr %8, null
  br i1 %.not, label %10, label %9

9:                                                ; preds = %1
  tail call void %8(ptr noundef nonnull %0) #6
  br label %10

10:                                               ; preds = %9, %1
  ret void
}